; Function Attrs: nounwind uwtable
define dso_local void @sema_error_at_after(i64 %0, ptr noundef %1, ...) local_unnamed_addr #0 {
  %3 = alloca [1 x %struct.__va_list_tag], align 16
  call void @llvm.va_start.p0(ptr nonnull %3)
  %4 = shl i64 %0, 8
  %5 = and i64 %4, 4278190080
  %6 = add i64 %5, %0
  %.sroa.4.0.insert.shift = and i64 %6, 4278190080
  %7 = and i64 %0, -4294901761
  %.sroa.2.0.insert.insert = or disjoint i64 %7, %.sroa.4.0.insert.shift
  %.sroa.0.0.insert.insert = or disjoint i64 %.sroa.2.0.insert.insert, 65536
  %8 = call ptr @str_vprintf(ptr noundef %1, ptr noundef nonnull %3) #8
  call fastcc void @print_error(i64 %.sroa.0.0.insert.insert, ptr noundef %8, i32 noundef 0)
  %9 = load i32, ptr getelementptr inbounds (%struct.GlobalContext, ptr @global_context, i64 0, i32 10), align 4
  %10 = add i32 %9, 1
  store i32 %10, ptr getelementptr inbounds (%struct.GlobalContext, ptr @global_context, i64 0, i32 10), align 4
  call void @llvm.va_end.p0(ptr nonnull %3)
  ret void
}